target datalayout = "e-m:e-p270:32:32-p271:32:32-p272:64:64-i64:64-i128:128-f80:128-n8:16:32:64-S128"
target triple = "x86_64-pc-linux-gnu"

%struct.rsa_st = type { i32, ptr, i32, ptr, ptr, ptr, ptr, ptr, ptr, ptr, ptr, ptr, ptr, %struct.rsa_pss_params_30_st, ptr, ptr, %struct.crypto_ex_data_st, %struct.CRYPTO_REF_COUNT, i32, ptr, ptr, ptr, ptr, ptr, ptr, i32 }
%struct.rsa_pss_params_30_st = type { i32, %struct.anon, i32, i32 }
%struct.anon = type { i32, i32 }
%struct.crypto_ex_data_st = type { ptr, ptr }
%struct.CRYPTO_REF_COUNT = type { i32 }

@.str = private unnamed_addr constant [44 x i8] c"../openssl/crypto/rsa/rsa_sp800_56b_check.c\00", align 1
@__func__.ossl_rsa_sp800_56b_check_keypair = private unnamed_addr constant [33 x i8] c"ossl_rsa_sp800_56b_check_keypair\00", align 1

; Function Attrs: nounwind uwtable
define i32 @ossl_rsa_check_public_exponent(ptr noundef %0) #0 {
  %2 = alloca ptr, align 8
  store ptr %0, ptr %2, align 8, !tbaa !12
  %3 = load ptr, ptr %2, align 8, !tbaa !12
  %4 = call i32 @BN_is_odd(ptr noundef %3)
  %5 = icmp ne i32 %4, 0
  br i1 %5, label %6, label %11

6:                                                ; preds = %1
  %7 = load ptr, ptr %2, align 8, !tbaa !12
  %8 = call ptr @BN_value_one()
  %9 = call i32 @BN_cmp(ptr noundef %7, ptr noundef %8)
  %10 = icmp sgt i32 %9, 0
  br label %11

11:                                               ; preds = %6, %1
  %12 = phi i1 [ false, %1 ], [ %10, %6 ]
  %13 = zext i1 %12 to i32
  ret i32 %13
}

; Function Attrs: nounwind uwtable
define i32 @ossl_rsa_sp800_56b_check_keypair(ptr noundef %0, ptr noundef %1, i32 noundef %2, i32 noundef %3) #0 {
  %5 = alloca i32, align 4
  %6 = alloca ptr, align 8
  %7 = alloca ptr, align 8
  %8 = alloca i32, align 4
  %9 = alloca i32, align 4
  %10 = alloca i32, align 4
  %11 = alloca ptr, align 8
  %12 = alloca ptr, align 8
  %13 = alloca i32, align 4
  store ptr %0, ptr %6, align 8, !tbaa !3
  store ptr %1, ptr %7, align 8, !tbaa !12
  store i32 %2, ptr %8, align 4, !tbaa !10
  store i32 %3, ptr %9, align 4, !tbaa !10
  call void @llvm.lifetime.start.p0(i64 4, ptr %10) #3
  store i32 0, ptr %10, align 4, !tbaa !10
  call void @llvm.lifetime.start.p0(i64 8, ptr %11) #3
  store ptr null, ptr %11, align 8, !tbaa !8
  call void @llvm.lifetime.start.p0(i64 8, ptr %12) #3
  store ptr null, ptr %12, align 8, !tbaa !12
  %14 = load ptr, ptr %6, align 8, !tbaa !3
  %15 = getelementptr inbounds nuw %struct.rsa_st, ptr %14, i32 0, i32 8
  %16 = load ptr, ptr %15, align 8, !tbaa !30
  %17 = icmp eq ptr %16, null
  br i1 %17, label %38, label %18

18:                                               ; preds = %4
  %19 = load ptr, ptr %6, align 8, !tbaa !3
  %20 = getelementptr inbounds nuw %struct.rsa_st, ptr %19, i32 0, i32 9
  %21 = load ptr, ptr %20, align 8, !tbaa !31
  %22 = icmp eq ptr %21, null
  br i1 %22, label %38, label %23

23:                                               ; preds = %18
  %24 = load ptr, ptr %6, align 8, !tbaa !3
  %25 = getelementptr inbounds nuw %struct.rsa_st, ptr %24, i32 0, i32 6
  %26 = load ptr, ptr %25, align 8, !tbaa !32
  %27 = icmp eq ptr %26, null
  br i1 %27, label %38, label %28

28:                                               ; preds = %23
  %29 = load ptr, ptr %6, align 8, !tbaa !3
  %30 = getelementptr inbounds nuw %struct.rsa_st, ptr %29, i32 0, i32 7
  %31 = load ptr, ptr %30, align 8, !tbaa !33
  %32 = icmp eq ptr %31, null
  br i1 %32, label %38, label %33

33:                                               ; preds = %28
  %34 = load ptr, ptr %6, align 8, !tbaa !3
  %35 = getelementptr inbounds nuw %struct.rsa_st, ptr %34, i32 0, i32 5
  %36 = load ptr, ptr %35, align 8, !tbaa !34
  %37 = icmp eq ptr %36, null
  br i1 %37, label %38, label %39

38:                                               ; preds = %33, %28, %23, %18, %4
  call void @ERR_new()
  call void @ERR_set_debug(ptr noundef @.str, i32 noundef 386, ptr noundef @__func__.ossl_rsa_sp800_56b_check_keypair)
  call void (i32, i32, ptr, ...) @ERR_set_error(i32 noundef 4, i32 noundef 175, ptr noundef null)
  store i32 0, ptr %5, align 4
  store i32 1, ptr %13, align 4
  br label %170

39:                                               ; preds = %33
  %40 = load i32, ptr %9, align 4, !tbaa !10
  %41 = load i32, ptr %8, align 4, !tbaa !10
  %42 = call i32 @ossl_rsa_sp800_56b_validate_strength(i32 noundef %40, i32 noundef %41)
  %43 = icmp ne i32 %42, 0
  br i1 %43, label %45, label %44

44:                                               ; preds = %39
  store i32 0, ptr %5, align 4
  store i32 1, ptr %13, align 4
  br label %170

45:                                               ; preds = %39
  %46 = load ptr, ptr %7, align 8, !tbaa !12
  %47 = icmp ne ptr %46, null
  br i1 %47, label %48, label %57

48:                                               ; preds = %45
  %49 = load ptr, ptr %7, align 8, !tbaa !12
  %50 = load ptr, ptr %6, align 8, !tbaa !3
  %51 = getelementptr inbounds nuw %struct.rsa_st, ptr %50, i32 0, i32 6
  %52 = load ptr, ptr %51, align 8, !tbaa !32
  %53 = call i32 @BN_cmp(ptr noundef %49, ptr noundef %52)
  %54 = icmp ne i32 %53, 0
  br i1 %54, label %55, label %56

55:                                               ; preds = %48
  call void @ERR_new()
  call void @ERR_set_debug(ptr noundef @.str, i32 noundef 397, ptr noundef @__func__.ossl_rsa_sp800_56b_check_keypair)
  call void (i32, i32, ptr, ...) @ERR_set_error(i32 noundef 4, i32 noundef 175, ptr noundef null)
  store i32 0, ptr %5, align 4
  store i32 1, ptr %13, align 4
  br label %170

56:                                               ; preds = %48
  br label %57

57:                                               ; preds = %56, %45
  %58 = load ptr, ptr %6, align 8, !tbaa !3
  %59 = getelementptr inbounds nuw %struct.rsa_st, ptr %58, i32 0, i32 6
  %60 = load ptr, ptr %59, align 8, !tbaa !32
  %61 = call i32 @ossl_rsa_check_public_exponent(ptr noundef %60)
  %62 = icmp ne i32 %61, 0
  br i1 %62, label %64, label %63

63:                                               ; preds = %57
  call void @ERR_new()
  call void @ERR_set_debug(ptr noundef @.str, i32 noundef 404, ptr noundef @__func__.ossl_rsa_sp800_56b_check_keypair)
  call void (i32, i32, ptr, ...) @ERR_set_error(i32 noundef 4, i32 noundef 178, ptr noundef null)
  store i32 0, ptr %5, align 4
  store i32 1, ptr %13, align 4
  br label %170

64:                                               ; preds = %57
  %65 = load i32, ptr %9, align 4, !tbaa !10
  %66 = load ptr, ptr %6, align 8, !tbaa !3
  %67 = getelementptr inbounds nuw %struct.rsa_st, ptr %66, i32 0, i32 5
  %68 = load ptr, ptr %67, align 8, !tbaa !34
  %69 = call i32 @BN_num_bits(ptr noundef %68)
  %70 = icmp ne i32 %65, %69
  br i1 %70, label %71, label %72

71:                                               ; preds = %64
  call void @ERR_new()
  call void @ERR_set_debug(ptr noundef @.str, i32 noundef 409, ptr noundef @__func__.ossl_rsa_sp800_56b_check_keypair)
  call void (i32, i32, ptr, ...) @ERR_set_error(i32 noundef 4, i32 noundef 171, ptr noundef null)
  store i32 0, ptr %5, align 4
  store i32 1, ptr %13, align 4
  br label %170

72:                                               ; preds = %64
  %73 = load i32, ptr %9, align 4, !tbaa !10
  %74 = icmp sle i32 %73, 0
  br i1 %74, label %79, label %75

75:                                               ; preds = %72
  %76 = load i32, ptr %9, align 4, !tbaa !10
  %77 = and i32 %76, 1
  %78 = icmp ne i32 %77, 0
  br i1 %78, label %79, label %80

79:                                               ; preds = %75, %72
  call void @ERR_new()
  call void @ERR_set_debug(ptr noundef @.str, i32 noundef 414, ptr noundef @__func__.ossl_rsa_sp800_56b_check_keypair)
  call void (i32, i32, ptr, ...) @ERR_set_error(i32 noundef 4, i32 noundef 171, ptr noundef null)
  store i32 0, ptr %5, align 4
  store i32 1, ptr %13, align 4
  br label %170

80:                                               ; preds = %75
  %81 = load ptr, ptr %6, align 8, !tbaa !3
  %82 = getelementptr inbounds nuw %struct.rsa_st, ptr %81, i32 0, i32 1
  %83 = load ptr, ptr %82, align 8, !tbaa !35
  %84 = call ptr @BN_CTX_new_ex(ptr noundef %83)
  store ptr %84, ptr %11, align 8, !tbaa !8
  %85 = load ptr, ptr %11, align 8, !tbaa !8
  %86 = icmp eq ptr %85, null
  br i1 %86, label %87, label %88

87:                                               ; preds = %80
  store i32 0, ptr %5, align 4
  store i32 1, ptr %13, align 4
  br label %170

88:                                               ; preds = %80
  %89 = load ptr, ptr %11, align 8, !tbaa !8
  call void @BN_CTX_start(ptr noundef %89)
  %90 = load ptr, ptr %11, align 8, !tbaa !8
  %91 = call ptr @BN_CTX_get(ptr noundef %90)
  store ptr %91, ptr %12, align 8, !tbaa !12
  %92 = load ptr, ptr %12, align 8, !tbaa !12
  %93 = icmp eq ptr %92, null
  br i1 %93, label %105, label %94

94:                                               ; preds = %88
  %95 = load ptr, ptr %12, align 8, !tbaa !12
  %96 = load ptr, ptr %6, align 8, !tbaa !3
  %97 = getelementptr inbounds nuw %struct.rsa_st, ptr %96, i32 0, i32 8
  %98 = load ptr, ptr %97, align 8, !tbaa !30
  %99 = load ptr, ptr %6, align 8, !tbaa !3
  %100 = getelementptr inbounds nuw %struct.rsa_st, ptr %99, i32 0, i32 9
  %101 = load ptr, ptr %100, align 8, !tbaa !31
  %102 = load ptr, ptr %11, align 8, !tbaa !8
  %103 = call i32 @BN_mul(ptr noundef %95, ptr noundef %98, ptr noundef %101, ptr noundef %102)
  %104 = icmp ne i32 %103, 0
  br i1 %104, label %106, label %105

105:                                              ; preds = %94, %88
  br label %165

106:                                              ; preds = %94
  %107 = load ptr, ptr %6, align 8, !tbaa !3
  %108 = getelementptr inbounds nuw %struct.rsa_st, ptr %107, i32 0, i32 5
  %109 = load ptr, ptr %108, align 8, !tbaa !34
  %110 = load ptr, ptr %12, align 8, !tbaa !12
  %111 = call i32 @BN_cmp(ptr noundef %109, ptr noundef %110)
  %112 = icmp ne i32 %111, 0
  br i1 %112, label %113, label %114

113:                                              ; preds = %106
  call void @ERR_new()
  call void @ERR_set_debug(ptr noundef @.str, i32 noundef 428, ptr noundef @__func__.ossl_rsa_sp800_56b_check_keypair)
  call void (i32, i32, ptr, ...) @ERR_set_error(i32 noundef 4, i32 noundef 175, ptr noundef null)
  br label %165

114:                                              ; preds = %106
  %115 = load ptr, ptr %6, align 8, !tbaa !3
  %116 = getelementptr inbounds nuw %struct.rsa_st, ptr %115, i32 0, i32 8
  %117 = load ptr, ptr %116, align 8, !tbaa !30
  %118 = load ptr, ptr %6, align 8, !tbaa !3
  %119 = getelementptr inbounds nuw %struct.rsa_st, ptr %118, i32 0, i32 6
  %120 = load ptr, ptr %119, align 8, !tbaa !32
  %121 = load i32, ptr %9, align 4, !tbaa !10
  %122 = load ptr, ptr %11, align 8, !tbaa !8
  %123 = call i32 @ossl_rsa_check_prime_factor(ptr noundef %117, ptr noundef %120, i32 noundef %121, ptr noundef %122)
  %124 = icmp ne i32 %123, 0
  br i1 %124, label %125, label %158

125:                                              ; preds = %114
  %126 = load ptr, ptr %6, align 8, !tbaa !3
  %127 = getelementptr inbounds nuw %struct.rsa_st, ptr %126, i32 0, i32 9
  %128 = load ptr, ptr %127, align 8, !tbaa !31
  %129 = load ptr, ptr %6, align 8, !tbaa !3
  %130 = getelementptr inbounds nuw %struct.rsa_st, ptr %129, i32 0, i32 6
  %131 = load ptr, ptr %130, align 8, !tbaa !32
  %132 = load i32, ptr %9, align 4, !tbaa !10
  %133 = load ptr, ptr %11, align 8, !tbaa !8
  %134 = call i32 @ossl_rsa_check_prime_factor(ptr noundef %128, ptr noundef %131, i32 noundef %132, ptr noundef %133)
  %135 = icmp ne i32 %134, 0
  br i1 %135, label %136, label %158

136:                                              ; preds = %125
  %137 = load ptr, ptr %12, align 8, !tbaa !12
  %138 = load ptr, ptr %6, align 8, !tbaa !3
  %139 = getelementptr inbounds nuw %struct.rsa_st, ptr %138, i32 0, i32 8
  %140 = load ptr, ptr %139, align 8, !tbaa !30
  %141 = load ptr, ptr %6, align 8, !tbaa !3
  %142 = getelementptr inbounds nuw %struct.rsa_st, ptr %141, i32 0, i32 9
  %143 = load ptr, ptr %142, align 8, !tbaa !31
  %144 = load i32, ptr %9, align 4, !tbaa !10
  %145 = call i32 @ossl_rsa_check_pminusq_diff(ptr noundef %137, ptr noundef %140, ptr noundef %143, i32 noundef %144)
  %146 = icmp sgt i32 %145, 0
  br i1 %146, label %147, label %158

147:                                              ; preds = %136
  %148 = load ptr, ptr %6, align 8, !tbaa !3
  %149 = load i32, ptr %9, align 4, !tbaa !10
  %150 = load ptr, ptr %11, align 8, !tbaa !8
  %151 = call i32 @ossl_rsa_check_private_exponent(ptr noundef %148, i32 noundef %149, ptr noundef %150)
  %152 = icmp ne i32 %151, 0
  br i1 %152, label %153, label %158

153:                                              ; preds = %147
  %154 = load ptr, ptr %6, align 8, !tbaa !3
  %155 = load ptr, ptr %11, align 8, !tbaa !8
  %156 = call i32 @ossl_rsa_check_crt_components(ptr noundef %154, ptr noundef %155)
  %157 = icmp ne i32 %156, 0
  br label %158

158:                                              ; preds = %153, %147, %136, %125, %114
  %159 = phi i1 [ false, %147 ], [ false, %136 ], [ false, %125 ], [ false, %114 ], [ %157, %153 ]
  %160 = zext i1 %159 to i32
  store i32 %160, ptr %10, align 4, !tbaa !10
  %161 = load i32, ptr %10, align 4, !tbaa !10
  %162 = icmp ne i32 %161, 1
  br i1 %162, label %163, label %164

163:                                              ; preds = %158
  call void @ERR_new()
  call void @ERR_set_debug(ptr noundef @.str, i32 noundef 441, ptr noundef @__func__.ossl_rsa_sp800_56b_check_keypair)
  call void (i32, i32, ptr, ...) @ERR_set_error(i32 noundef 4, i32 noundef 171, ptr noundef null)
  br label %164

164:                                              ; preds = %163, %158
  br label %165

165:                                              ; preds = %164, %113, %105
  %166 = load ptr, ptr %12, align 8, !tbaa !12
  call void @BN_clear(ptr noundef %166)
  %167 = load ptr, ptr %11, align 8, !tbaa !8
  call void @BN_CTX_end(ptr noundef %167)
  %168 = load ptr, ptr %11, align 8, !tbaa !8
  call void @BN_CTX_free(ptr noundef %168)
  %169 = load i32, ptr %10, align 4, !tbaa !10
  store i32 %169, ptr %5, align 4
  store i32 1, ptr %13, align 4
  br label %170

170:                                              ; preds = %165, %87, %79, %71, %63, %55, %44, %38
  call void @llvm.lifetime.end.p0(i64 8, ptr %12) #3
  call void @llvm.lifetime.end.p0(i64 8, ptr %11) #3
  call void @llvm.lifetime.end.p0(i64 4, ptr %10) #3
  %171 = load i32, ptr %5, align 4
  ret i32 %171
}