; Function Attrs: nounwind uwtable
define range(i32 0, 2) i32 @ossl_rsa_sp800_56b_check_keypair(ptr noundef readonly captures(none) %0, ptr noundef %1, i32 noundef %2, i32 noundef %3) local_unnamed_addr #0 {
  %5 = getelementptr inbounds nuw i8, ptr %0, i64 64
  %6 = load ptr, ptr %5, align 8, !tbaa !24
  %7 = icmp eq ptr %6, null
  br i1 %7, label %24, label %8

8:                                                ; preds = %4
  %9 = getelementptr inbounds nuw i8, ptr %0, i64 72
  %10 = load ptr, ptr %9, align 8, !tbaa !25
  %11 = icmp eq ptr %10, null
  br i1 %11, label %24, label %12

12:                                               ; preds = %8
  %13 = getelementptr inbounds nuw i8, ptr %0, i64 48
  %14 = load ptr, ptr %13, align 8, !tbaa !26
  %15 = icmp eq ptr %14, null
  br i1 %15, label %24, label %16

16:                                               ; preds = %12
  %17 = getelementptr inbounds nuw i8, ptr %0, i64 56
  %18 = load ptr, ptr %17, align 8, !tbaa !27
  %19 = icmp eq ptr %18, null
  br i1 %19, label %24, label %20

20:                                               ; preds = %16
  %21 = getelementptr inbounds nuw i8, ptr %0, i64 40
  %22 = load ptr, ptr %21, align 8, !tbaa !28
  %23 = icmp eq ptr %22, null
  br i1 %23, label %24, label %25

24:                                               ; preds = %20, %16, %12, %8, %4
  tail call void @ERR_new() #3
  tail call void @ERR_set_debug(ptr noundef nonnull @.str, i32 noundef 386, ptr noundef nonnull @__func__.ossl_rsa_sp800_56b_check_keypair) #3
  tail call void (i32, i32, ptr, ...) @ERR_set_error(i32 noundef 4, i32 noundef 175, ptr noundef null) #3
  br label %80

25:                                               ; preds = %20
  %26 = tail call i32 @ossl_rsa_sp800_56b_validate_strength(i32 noundef %3, i32 noundef %2) #3
  %.not = icmp eq i32 %26, 0
  br i1 %.not, label %80, label %27

27:                                               ; preds = %25
  %.not54 = icmp eq ptr %1, null
  br i1 %.not54, label %32, label %28

28:                                               ; preds = %27
  %29 = load ptr, ptr %13, align 8, !tbaa !26
  %30 = tail call i32 @BN_cmp(ptr noundef nonnull %1, ptr noundef %29) #3
  %.not55 = icmp eq i32 %30, 0
  br i1 %.not55, label %32, label %31

31:                                               ; preds = %28
  tail call void @ERR_new() #3
  tail call void @ERR_set_debug(ptr noundef nonnull @.str, i32 noundef 397, ptr noundef nonnull @__func__.ossl_rsa_sp800_56b_check_keypair) #3
  tail call void (i32, i32, ptr, ...) @ERR_set_error(i32 noundef 4, i32 noundef 175, ptr noundef null) #3
  br label %80

32:                                               ; preds = %28, %27
  %33 = load ptr, ptr %13, align 8, !tbaa !26
  %34 = tail call i32 @BN_is_odd(ptr noundef %33) #3
  %.not.i = icmp eq i32 %34, 0
  br i1 %.not.i, label %ossl_rsa_check_public_exponent.exit.thread, label %ossl_rsa_check_public_exponent.exit

ossl_rsa_check_public_exponent.exit:              ; preds = %32
  %35 = tail call ptr @BN_value_one() #3
  %36 = tail call i32 @BN_cmp(ptr noundef %33, ptr noundef %35) #3
  %37 = icmp slt i32 %36, 1
  br i1 %37, label %ossl_rsa_check_public_exponent.exit.thread, label %38

ossl_rsa_check_public_exponent.exit.thread:       ; preds = %32, %ossl_rsa_check_public_exponent.exit
  tail call void @ERR_new() #3
  tail call void @ERR_set_debug(ptr noundef nonnull @.str, i32 noundef 404, ptr noundef nonnull @__func__.ossl_rsa_sp800_56b_check_keypair) #3
  tail call void (i32, i32, ptr, ...) @ERR_set_error(i32 noundef 4, i32 noundef 178, ptr noundef null) #3
  br label %80

38:                                               ; preds = %ossl_rsa_check_public_exponent.exit
  %39 = load ptr, ptr %21, align 8, !tbaa !28
  %40 = tail call i32 @BN_num_bits(ptr noundef %39) #3
  %.not57 = icmp eq i32 %3, %40
  br i1 %.not57, label %42, label %41

41:                                               ; preds = %38
  tail call void @ERR_new() #3
  tail call void @ERR_set_debug(ptr noundef nonnull @.str, i32 noundef 409, ptr noundef nonnull @__func__.ossl_rsa_sp800_56b_check_keypair) #3
  tail call void (i32, i32, ptr, ...) @ERR_set_error(i32 noundef 4, i32 noundef 171, ptr noundef null) #3
  br label %80

42:                                               ; preds = %38
  %43 = icmp sgt i32 %3, 0
  %44 = and i32 %3, 1
  %.not58 = icmp eq i32 %44, 0
  %or.cond = and i1 %43, %.not58
  br i1 %or.cond, label %46, label %45

45:                                               ; preds = %42
  tail call void @ERR_new() #3
  tail call void @ERR_set_debug(ptr noundef nonnull @.str, i32 noundef 414, ptr noundef nonnull @__func__.ossl_rsa_sp800_56b_check_keypair) #3
  tail call void (i32, i32, ptr, ...) @ERR_set_error(i32 noundef 4, i32 noundef 171, ptr noundef null) #3
  br label %80

46:                                               ; preds = %42
  %47 = getelementptr inbounds nuw i8, ptr %0, i64 8
  %48 = load ptr, ptr %47, align 8, !tbaa !29
  %49 = tail call ptr @BN_CTX_new_ex(ptr noundef %48) #3
  %50 = icmp eq ptr %49, null
  br i1 %50, label %80, label %51

51:                                               ; preds = %46
  tail call void @BN_CTX_start(ptr noundef nonnull %49) #3
  %52 = tail call ptr @BN_CTX_get(ptr noundef nonnull %49) #3
  %53 = icmp eq ptr %52, null
  br i1 %53, label %79, label %54

54:                                               ; preds = %51
  %55 = load ptr, ptr %5, align 8, !tbaa !24
  %56 = load ptr, ptr %9, align 8, !tbaa !25
  %57 = tail call i32 @BN_mul(ptr noundef nonnull %52, ptr noundef %55, ptr noundef %56, ptr noundef nonnull %49) #3
  %.not59 = icmp eq i32 %57, 0
  br i1 %.not59, label %79, label %58

58:                                               ; preds = %54
  %59 = load ptr, ptr %21, align 8, !tbaa !28
  %60 = tail call i32 @BN_cmp(ptr noundef %59, ptr noundef nonnull %52) #3
  %.not60 = icmp eq i32 %60, 0
  br i1 %.not60, label %61, label %.sink.split

61:                                               ; preds = %58
  %62 = load ptr, ptr %5, align 8, !tbaa !24
  %63 = load ptr, ptr %13, align 8, !tbaa !26
  %64 = tail call i32 @ossl_rsa_check_prime_factor(ptr noundef %62, ptr noundef %63, i32 noundef %3, ptr noundef nonnull %49)
  %.not61 = icmp eq i32 %64, 0
  br i1 %.not61, label %.sink.split, label %65

65:                                               ; preds = %61
  %66 = load ptr, ptr %9, align 8, !tbaa !25
  %67 = load ptr, ptr %13, align 8, !tbaa !26
  %68 = tail call i32 @ossl_rsa_check_prime_factor(ptr noundef %66, ptr noundef %67, i32 noundef %3, ptr noundef nonnull %49)
  %.not62 = icmp eq i32 %68, 0
  br i1 %.not62, label %.sink.split, label %69

69:                                               ; preds = %65
  %70 = load ptr, ptr %5, align 8, !tbaa !24
  %71 = load ptr, ptr %9, align 8, !tbaa !25
  %72 = tail call i32 @ossl_rsa_check_pminusq_diff(ptr noundef nonnull %52, ptr noundef %70, ptr noundef %71, i32 noundef %3)
  %73 = icmp sgt i32 %72, 0
  br i1 %73, label %74, label %.sink.split

74:                                               ; preds = %69
  %75 = tail call i32 @ossl_rsa_check_private_exponent(ptr noundef nonnull %0, i32 noundef %3, ptr noundef nonnull %49)
  %.not63 = icmp eq i32 %75, 0
  br i1 %.not63, label %.sink.split, label %76

76:                                               ; preds = %74
  %77 = tail call i32 @ossl_rsa_check_crt_components(ptr noundef nonnull %0, ptr noundef nonnull %49)
  %78 = icmp eq i32 %77, 0
  br i1 %78, label %.sink.split, label %79

.sink.split:                                      ; preds = %76, %61, %65, %69, %74, %58
  %.sink66 = phi i32 [ 428, %58 ], [ 441, %74 ], [ 441, %69 ], [ 441, %65 ], [ 441, %61 ], [ 441, %76 ]
  %.sink = phi i32 [ 175, %58 ], [ 171, %74 ], [ 171, %69 ], [ 171, %65 ], [ 171, %61 ], [ 171, %76 ]
  tail call void @ERR_new() #3
  tail call void @ERR_set_debug(ptr noundef nonnull @.str, i32 noundef %.sink66, ptr noundef nonnull @__func__.ossl_rsa_sp800_56b_check_keypair) #3
  tail call void (i32, i32, ptr, ...) @ERR_set_error(i32 noundef 4, i32 noundef %.sink, ptr noundef null) #3
  br label %79

79:                                               ; preds = %.sink.split, %76, %51, %54
  %.0 = phi i32 [ 0, %51 ], [ 1, %76 ], [ 0, %54 ], [ 0, %.sink.split ]
  tail call void @BN_clear(ptr noundef %52) #3
  tail call void @BN_CTX_end(ptr noundef nonnull %49) #3
  tail call void @BN_CTX_free(ptr noundef nonnull %49) #3
  br label %80

80:                                               ; preds = %46, %25, %79, %45, %41, %ossl_rsa_check_public_exponent.exit.thread, %31, %24
  %.048 = phi i32 [ 0, %24 ], [ 0, %31 ], [ 0, %41 ], [ 0, %45 ], [ %.0, %79 ], [ 0, %ossl_rsa_check_public_exponent.exit.thread ], [ 0, %25 ], [ 0, %46 ]
  ret i32 %.048
}